; Function Attrs: mustprogress nounwind uwtable
define dso_local void @_ZN5clang13SelectorTableC2Ev(ptr nocapture noundef nonnull writeonly align 8 dereferenceable(8) %0) unnamed_addr #3 align 2 {
  %2 = tail call noalias noundef nonnull dereferenceable(112) ptr @_Znwm(i64 noundef 112) #25
  tail call void @llvm.memset.p0.i64(ptr noundef nonnull align 16 dereferenceable(112) %2, i8 0, i64 112, i1 false)
  tail call void @_ZN4llvm14FoldingSetBaseC2Ej(ptr noundef nonnull align 8 dereferenceable(16) %2, i32 noundef 6) #26
  %3 = getelementptr inbounds nuw i8, ptr %2, i64 16
  %4 = getelementptr inbounds i8, ptr %2, i64 32
  %5 = getelementptr inbounds i8, ptr %2, i64 48
  tail call void @llvm.memset.p0.i64(ptr noundef nonnull align 8 dereferenceable(16) %3, i8 0, i64 16, i1 false)
  tail call void @_ZN4llvm15SmallVectorBaseIjEC2EPvm(ptr noundef nonnull align 8 dereferenceable(16) %4, ptr noundef nonnull %5, i64 noundef 4) #26
  %6 = getelementptr inbounds i8, ptr %2, i64 80
  %7 = getelementptr inbounds i8, ptr %2, i64 96
  tail call void @_ZN4llvm15SmallVectorBaseIjEC2EPvm(ptr noundef nonnull align 8 dereferenceable(16) %6, ptr noundef nonnull %7, i64 noundef 0) #26
  store i64 0, ptr %7, align 8
  %8 = getelementptr inbounds i8, ptr %2, i64 104
  store i64 1, ptr %8, align 8
  store ptr %2, ptr %0, align 8
  ret void
}